target datalayout = "e-m:e-p270:32:32-p271:32:32-p272:64:64-i64:64-i128:128-f80:128-n8:16:32:64-S128"
target triple = "x86_64-pc-linux-gnu"

; Function Attrs: inlinehint mustprogress uwtable
define internal noundef i32 @_ZL24getASCIIPropertyNameCharPKc(ptr noundef %0) #2 {
  %2 = alloca i32, align 4
  %3 = alloca ptr, align 8
  %4 = alloca i32, align 4
  %5 = alloca i8, align 1
  %6 = alloca i32, align 4
  store ptr %0, ptr %3, align 8, !tbaa !3
  call void @llvm.lifetime.start.p0(i64 4, ptr %4) #7
  call void @llvm.lifetime.start.p0(i64 1, ptr %5) #7
  store i32 0, ptr %4, align 4, !tbaa !8
  br label %7

7:                                                ; preds = %36, %1
  %8 = load ptr, ptr %3, align 8, !tbaa !3
  %9 = load i32, ptr %4, align 4, !tbaa !8
  %10 = add nsw i32 %9, 1
  store i32 %10, ptr %4, align 4, !tbaa !8
  %11 = sext i32 %9 to i64
  %12 = getelementptr inbounds i8, ptr %8, i64 %11
  %13 = load i8, ptr %12, align 1, !tbaa !12
  store i8 %13, ptr %5, align 1, !tbaa !12
  %14 = sext i8 %13 to i32
  %15 = icmp eq i32 %14, 45
  br i1 %15, label %34, label %16

16:                                               ; preds = %7
  %17 = load i8, ptr %5, align 1, !tbaa !12
  %18 = sext i8 %17 to i32
  %19 = icmp eq i32 %18, 95
  br i1 %19, label %34, label %20

20:                                               ; preds = %16
  %21 = load i8, ptr %5, align 1, !tbaa !12
  %22 = sext i8 %21 to i32
  %23 = icmp eq i32 %22, 32
  br i1 %23, label %34, label %24

24:                                               ; preds = %20
  %25 = load i8, ptr %5, align 1, !tbaa !12
  %26 = sext i8 %25 to i32
  %27 = icmp sle i32 9, %26
  br i1 %27, label %28, label %32

28:                                               ; preds = %24
  %29 = load i8, ptr %5, align 1, !tbaa !12
  %30 = sext i8 %29 to i32
  %31 = icmp sle i32 %30, 13
  br label %32

32:                                               ; preds = %28, %24
  %33 = phi i1 [ false, %24 ], [ %31, %28 ]
  br label %34

34:                                               ; preds = %32, %20, %16, %7
  %35 = phi i1 [ true, %20 ], [ true, %16 ], [ true, %7 ], [ %33, %32 ]
  br i1 %35, label %36, label %37

36:                                               ; preds = %34
  br label %7, !llvm.loop !13

37:                                               ; preds = %34
  %38 = load i8, ptr %5, align 1, !tbaa !12
  %39 = sext i8 %38 to i32
  %40 = icmp ne i32 %39, 0
  br i1 %40, label %41, label %48

41:                                               ; preds = %37
  %42 = load i32, ptr %4, align 4, !tbaa !8
  %43 = shl i32 %42, 8
  %44 = load i8, ptr %5, align 1, !tbaa !12
  %45 = call signext i8 @uprv_asciitolower_77(i8 noundef signext %44)
  %46 = zext i8 %45 to i32
  %47 = or i32 %43, %46
  store i32 %47, ptr %2, align 4
  store i32 1, ptr %6, align 4
  br label %51

48:                                               ; preds = %37
  %49 = load i32, ptr %4, align 4, !tbaa !8
  %50 = shl i32 %49, 8
  store i32 %50, ptr %2, align 4
  store i32 1, ptr %6, align 4
  br label %51

51:                                               ; preds = %48, %41
  call void @llvm.lifetime.end.p0(i64 1, ptr %5) #7
  call void @llvm.lifetime.end.p0(i64 4, ptr %4) #7
  %52 = load i32, ptr %2, align 4
  ret i32 %52
}

; Function Attrs: mustprogress uwtable
define i32 @uprv_compareASCIIPropertyNames_77(ptr noundef %0, ptr noundef %1) #0 {
  %3 = alloca i32, align 4
  %4 = alloca ptr, align 8
  %5 = alloca ptr, align 8
  %6 = alloca i32, align 4
  %7 = alloca i32, align 4
  %8 = alloca i32, align 4
  %9 = alloca i32, align 4
  store ptr %0, ptr %4, align 8, !tbaa !3
  store ptr %1, ptr %5, align 8, !tbaa !3
  call void @llvm.lifetime.start.p0(i64 4, ptr %6) #7
  call void @llvm.lifetime.start.p0(i64 4, ptr %7) #7
  call void @llvm.lifetime.start.p0(i64 4, ptr %8) #7
  br label %10

10:                                               ; preds = %36, %2
  %11 = load ptr, ptr %4, align 8, !tbaa !3
  %12 = call noundef i32 @_ZL24getASCIIPropertyNameCharPKc(ptr noundef %11)
  store i32 %12, ptr %7, align 4, !tbaa !8
  %13 = load ptr, ptr %5, align 8, !tbaa !3
  %14 = call noundef i32 @_ZL24getASCIIPropertyNameCharPKc(ptr noundef %13)
  store i32 %14, ptr %8, align 4, !tbaa !8
  %15 = load i32, ptr %7, align 4, !tbaa !8
  %16 = load i32, ptr %8, align 4, !tbaa !8
  %17 = or i32 %15, %16
  %18 = and i32 %17, 255
  %19 = icmp eq i32 %18, 0
  br i1 %19, label %20, label %21

20:                                               ; preds = %10
  store i32 0, ptr %3, align 4
  store i32 1, ptr %9, align 4
  br label %47

21:                                               ; preds = %10
  %22 = load i32, ptr %7, align 4, !tbaa !8
  %23 = load i32, ptr %8, align 4, !tbaa !8
  %24 = icmp ne i32 %22, %23
  br i1 %24, label %25, label %36

25:                                               ; preds = %21
  %26 = load i32, ptr %7, align 4, !tbaa !8
  %27 = and i32 %26, 255
  %28 = load i32, ptr %8, align 4, !tbaa !8
  %29 = and i32 %28, 255
  %30 = sub nsw i32 %27, %29
  store i32 %30, ptr %6, align 4, !tbaa !8
  %31 = load i32, ptr %6, align 4, !tbaa !8
  %32 = icmp ne i32 %31, 0
  br i1 %32, label %33, label %35

33:                                               ; preds = %25
  %34 = load i32, ptr %6, align 4, !tbaa !8
  store i32 %34, ptr %3, align 4
  store i32 1, ptr %9, align 4
  br label %47

35:                                               ; preds = %25
  br label %36

36:                                               ; preds = %35, %21
  %37 = load i32, ptr %7, align 4, !tbaa !8
  %38 = ashr i32 %37, 8
  %39 = load ptr, ptr %4, align 8, !tbaa !3
  %40 = sext i32 %38 to i64
  %41 = getelementptr inbounds i8, ptr %39, i64 %40
  store ptr %41, ptr %4, align 8, !tbaa !3
  %42 = load i32, ptr %8, align 4, !tbaa !8
  %43 = ashr i32 %42, 8
  %44 = load ptr, ptr %5, align 8, !tbaa !3
  %45 = sext i32 %43 to i64
  %46 = getelementptr inbounds i8, ptr %44, i64 %45
  store ptr %46, ptr %5, align 8, !tbaa !3
  br label %10, !llvm.loop !10

47:                                               ; preds = %33, %20
  call void @llvm.lifetime.end.p0(i64 4, ptr %8) #7
  call void @llvm.lifetime.end.p0(i64 4, ptr %7) #7
  call void @llvm.lifetime.end.p0(i64 4, ptr %6) #7
  %48 = load i32, ptr %3, align 4
  ret i32 %48
}