; Function Attrs: mustprogress uwtable
define range(i32 -255, 256) i32 @uprv_compareASCIIPropertyNames_77(ptr noundef readonly captures(none) %0, ptr noundef readonly captures(none) %1) local_unnamed_addr #0 {
  br label %3

3:                                                ; preds = %36, %2
  %.015 = phi ptr [ %1, %2 ], [ %42, %36 ]
  %.014 = phi ptr [ %0, %2 ], [ %39, %36 ]
  br label %.critedge.i

.critedge.i:                                      ; preds = %.critedge.i.backedge, %3
  %indvars.iv.i = phi i64 [ 0, %3 ], [ %indvars.iv.next.i, %.critedge.i.backedge ]
  %indvars.iv.next.i = add nuw nsw i64 %indvars.iv.i, 1
  %4 = getelementptr inbounds nuw i8, ptr %.014, i64 %indvars.iv.i
  %5 = load i8, ptr %4, align 1, !tbaa !3
  switch i8 %5, label %6 [
    i8 95, label %.critedge.i.backedge
    i8 45, label %.critedge.i.backedge
    i8 32, label %.critedge.i.backedge
  ]

6:                                                ; preds = %.critedge.i
  %7 = add i8 %5, -9
  %8 = icmp ult i8 %7, 5
  br i1 %8, label %.critedge.i.backedge, label %9

.critedge.i.backedge:                             ; preds = %6, %.critedge.i, %.critedge.i, %.critedge.i
  br label %.critedge.i, !llvm.loop !6

9:                                                ; preds = %6
  %10 = trunc nuw i64 %indvars.iv.next.i to i32
  %.not.i = icmp eq i8 %5, 0
  %11 = shl i32 %10, 8
  br i1 %.not.i, label %_ZL24getASCIIPropertyNameCharPKc.exit, label %12

12:                                               ; preds = %9
  %13 = tail call signext i8 @uprv_asciitolower_77(i8 noundef signext %5)
  %14 = zext i8 %13 to i32
  %15 = or disjoint i32 %11, %14
  br label %_ZL24getASCIIPropertyNameCharPKc.exit

_ZL24getASCIIPropertyNameCharPKc.exit:            ; preds = %9, %12
  %.0.i = phi i32 [ %15, %12 ], [ %11, %9 ]
  br label %.critedge.i22

.critedge.i22:                                    ; preds = %.critedge.i22.backedge, %_ZL24getASCIIPropertyNameCharPKc.exit
  %indvars.iv.i20 = phi i64 [ 0, %_ZL24getASCIIPropertyNameCharPKc.exit ], [ %indvars.iv.next.i21, %.critedge.i22.backedge ]
  %indvars.iv.next.i21 = add nuw nsw i64 %indvars.iv.i20, 1
  %16 = getelementptr inbounds nuw i8, ptr %.015, i64 %indvars.iv.i20
  %17 = load i8, ptr %16, align 1, !tbaa !3
  switch i8 %17, label %18 [
    i8 95, label %.critedge.i22.backedge
    i8 45, label %.critedge.i22.backedge
    i8 32, label %.critedge.i22.backedge
  ]

18:                                               ; preds = %.critedge.i22
  %19 = add i8 %17, -9
  %20 = icmp ult i8 %19, 5
  br i1 %20, label %.critedge.i22.backedge, label %21

.critedge.i22.backedge:                           ; preds = %18, %.critedge.i22, %.critedge.i22, %.critedge.i22
  br label %.critedge.i22, !llvm.loop !6

21:                                               ; preds = %18
  %22 = trunc nuw i64 %indvars.iv.next.i21 to i32
  %.not.i23 = icmp eq i8 %17, 0
  %23 = shl i32 %22, 8
  br i1 %.not.i23, label %_ZL24getASCIIPropertyNameCharPKc.exit25, label %24

24:                                               ; preds = %21
  %25 = tail call signext i8 @uprv_asciitolower_77(i8 noundef signext %17)
  %26 = zext i8 %25 to i32
  %27 = or disjoint i32 %23, %26
  br label %_ZL24getASCIIPropertyNameCharPKc.exit25

_ZL24getASCIIPropertyNameCharPKc.exit25:          ; preds = %21, %24
  %.0.i24 = phi i32 [ %27, %24 ], [ %23, %21 ]
  %28 = or i32 %.0.i24, %.0.i
  %29 = and i32 %28, 255
  %30 = icmp eq i32 %29, 0
  br i1 %30, label %43, label %31

31:                                               ; preds = %_ZL24getASCIIPropertyNameCharPKc.exit25
  %.not = icmp eq i32 %.0.i, %.0.i24
  br i1 %.not, label %36, label %32

32:                                               ; preds = %31
  %33 = and i32 %.0.i, 255
  %34 = and i32 %.0.i24, 255
  %35 = sub nsw i32 %33, %34
  %.not19 = icmp eq i32 %35, 0
  br i1 %.not19, label %36, label %43

36:                                               ; preds = %32, %31
  %37 = ashr i32 %.0.i, 8
  %38 = sext i32 %37 to i64
  %39 = getelementptr inbounds i8, ptr %.014, i64 %38
  %40 = ashr i32 %.0.i24, 8
  %41 = sext i32 %40 to i64
  %42 = getelementptr inbounds i8, ptr %.015, i64 %41
  br label %3, !llvm.loop !8

43:                                               ; preds = %32, %_ZL24getASCIIPropertyNameCharPKc.exit25
  %.0 = phi i32 [ 0, %_ZL24getASCIIPropertyNameCharPKc.exit25 ], [ %35, %32 ]
  ret i32 %.0
}